; Function Attrs: nofree norecurse nosync nounwind memory(read, inaccessiblemem: none) uwtable
define hidden range(i32 -32768, 32769) i32 @mbedtls_mpi_cmp_int(ptr noundef readonly captures(none) %0, i64 noundef %1) local_unnamed_addr #9 {
  %.0.i = tail call noundef range(i64 0, -9223372036854775807) i64 @llvm.abs.i64(i64 %1, i1 false)
  %3 = ashr i64 %1, 62
  %4 = trunc nsw i64 %3 to i32
  %5 = or i32 %4, 1
  %6 = getelementptr inbounds nuw i8, ptr %0, i64 10
  %7 = load i16, ptr %6, align 2, !tbaa !3
  %.not44.i = icmp eq i16 %7, 0
  br i1 %.not44.i, label %.lr.ph51.i, label %.lr.ph.i

.lr.ph.i:                                         ; preds = %2
  %8 = zext i16 %7 to i64
  %9 = load ptr, ptr %0, align 8, !tbaa !12
  %invariant.gep.i = getelementptr i8, ptr %9, i64 -8
  br label %10

10:                                               ; preds = %12, %.lr.ph.i
  %.03545.i = phi i64 [ %8, %.lr.ph.i ], [ %13, %12 ]
  %gep.i = getelementptr i64, ptr %invariant.gep.i, i64 %.03545.i
  %11 = load i64, ptr %gep.i, align 8, !tbaa !17
  %.not39.i = icmp eq i64 %11, 0
  br i1 %.not39.i, label %12, label %.lr.ph51.i

12:                                               ; preds = %10
  %13 = add nsw i64 %.03545.i, -1
  %.not.i = icmp eq i64 %13, 0
  br i1 %.not.i, label %.lr.ph51.i, label %10, !llvm.loop !31

.lr.ph51.i:                                       ; preds = %10, %12, %2
  %.035.lcssa.i = phi i64 [ 0, %2 ], [ 0, %12 ], [ %.03545.i, %10 ]
  %.not41.i = icmp ne i64 %1, 0
  %spec.select = zext i1 %.not41.i to i64
  %14 = or i64 %.035.lcssa.i, %spec.select
  %or.cond.i = icmp eq i64 %14, 0
  br i1 %or.cond.i, label %mbedtls_mpi_cmp_mpi.exit, label %15

15:                                               ; preds = %.lr.ph51.i
  %16 = icmp ugt i64 %.035.lcssa.i, %spec.select
  br i1 %16, label %17, label %21

17:                                               ; preds = %15
  %18 = getelementptr inbounds nuw i8, ptr %0, i64 8
  %19 = load i16, ptr %18, align 8, !tbaa !10
  %20 = sext i16 %19 to i32
  br label %mbedtls_mpi_cmp_mpi.exit

21:                                               ; preds = %15
  %22 = icmp samesign ult i64 %.035.lcssa.i, %spec.select
  br i1 %22, label %23, label %25

23:                                               ; preds = %21
  %24 = sub nsw i32 0, %5
  br label %mbedtls_mpi_cmp_mpi.exit

25:                                               ; preds = %21
  %26 = getelementptr inbounds nuw i8, ptr %0, i64 8
  %27 = load i16, ptr %26, align 8, !tbaa !10
  %28 = icmp sgt i16 %27, 0
  br i1 %28, label %29, label %31

29:                                               ; preds = %25
  %30 = icmp slt i64 %3, 0
  br i1 %30, label %mbedtls_mpi_cmp_mpi.exit, label %.preheader.i.preheader

31:                                               ; preds = %25
  %32 = icmp sgt i64 %3, -1
  %33 = icmp ne i16 %27, 0
  %or.cond43.i = and i1 %32, %33
  br i1 %or.cond43.i, label %mbedtls_mpi_cmp_mpi.exit, label %.preheader.i.preheader

.preheader.i.preheader:                           ; preds = %31, %29
  br label %.preheader.i

.preheader.i:                                     ; preds = %.preheader.i.preheader, %42
  %.1.i = phi i64 [ %36, %42 ], [ %.035.lcssa.i, %.preheader.i.preheader ]
  %.not42.i = icmp eq i64 %.1.i, 0
  br i1 %.not42.i, label %mbedtls_mpi_cmp_mpi.exit, label %34

34:                                               ; preds = %.preheader.i
  %35 = load ptr, ptr %0, align 8, !tbaa !12
  %36 = add nsw i64 %.1.i, -1
  %37 = getelementptr inbounds nuw i64, ptr %35, i64 %36
  %38 = load i64, ptr %37, align 8, !tbaa !17
  %39 = icmp ugt i64 %38, %.0.i
  br i1 %39, label %40, label %42

40:                                               ; preds = %34
  %41 = sext i16 %27 to i32
  br label %mbedtls_mpi_cmp_mpi.exit

42:                                               ; preds = %34
  %43 = icmp ult i64 %38, %.0.i
  br i1 %43, label %44, label %.preheader.i, !llvm.loop !38

44:                                               ; preds = %42
  %45 = sext i16 %27 to i32
  %46 = sub nsw i32 0, %45
  br label %mbedtls_mpi_cmp_mpi.exit

mbedtls_mpi_cmp_mpi.exit:                         ; preds = %.preheader.i, %.lr.ph51.i, %17, %23, %29, %31, %40, %44
  %.036.i = phi i32 [ %20, %17 ], [ %24, %23 ], [ %41, %40 ], [ %46, %44 ], [ 0, %.lr.ph51.i ], [ 1, %29 ], [ -1, %31 ], [ 0, %.preheader.i ]
  ret i32 %.036.i
}